; Function Attrs: nounwind uwtable
define internal ptr @get_timezones_offset_zero(ptr readnone captures(none) %0, ptr readnone captures(none) %1) #0 {
  %3 = load ptr, ptr @PyDateTimeAPI, align 8, !tbaa !24
  %4 = getelementptr inbounds nuw i8, ptr %3, i64 72
  %5 = load ptr, ptr %4, align 8, !tbaa !37
  %6 = getelementptr inbounds nuw i8, ptr %3, i64 24
  %7 = load ptr, ptr %6, align 8, !tbaa !29
  %8 = tail call ptr %5(i32 noundef 0, i32 noundef 0, i32 noundef 0, i32 noundef 1, ptr noundef %7) #4
  %9 = tail call ptr @Py_GetConstant(i32 noundef 7) #4
  %10 = icmp eq ptr %8, null
  %11 = icmp eq ptr %9, null
  %or.cond = select i1 %10, i1 true, i1 %11
  br i1 %or.cond, label %12, label %25

12:                                               ; preds = %2
  br i1 %10, label %Py_XDECREF.exit, label %13

13:                                               ; preds = %12
  %14 = load i32, ptr %8, align 8, !tbaa !3
  %.not.i.i = icmp sgt i32 %14, -1
  br i1 %.not.i.i, label %15, label %Py_XDECREF.exit

15:                                               ; preds = %13
  %16 = add nsw i32 %14, -1
  store i32 %16, ptr %8, align 8, !tbaa !3
  %17 = icmp eq i32 %16, 0
  br i1 %17, label %18, label %Py_XDECREF.exit

18:                                               ; preds = %15
  tail call void @_Py_Dealloc(ptr noundef nonnull %8) #4
  br label %Py_XDECREF.exit

Py_XDECREF.exit:                                  ; preds = %12, %13, %15, %18
  br i1 %11, label %Py_XDECREF.exit42, label %19

19:                                               ; preds = %Py_XDECREF.exit
  %20 = load i32, ptr %9, align 8, !tbaa !3
  %.not.i.i41 = icmp sgt i32 %20, -1
  br i1 %.not.i.i41, label %21, label %Py_XDECREF.exit42

21:                                               ; preds = %19
  %22 = add nsw i32 %20, -1
  store i32 %22, ptr %9, align 8, !tbaa !3
  %23 = icmp eq i32 %22, 0
  br i1 %23, label %24, label %Py_XDECREF.exit42

24:                                               ; preds = %21
  tail call void @_Py_Dealloc(ptr noundef nonnull %9) #4
  br label %Py_XDECREF.exit42

25:                                               ; preds = %2
  %26 = load ptr, ptr @PyDateTimeAPI, align 8, !tbaa !24
  %27 = getelementptr inbounds nuw i8, ptr %26, i64 80
  %28 = load ptr, ptr %27, align 8, !tbaa !41
  %29 = tail call ptr %28(ptr noundef nonnull %8, ptr noundef null) #4
  %30 = load ptr, ptr @PyDateTimeAPI, align 8, !tbaa !24
  %31 = getelementptr inbounds nuw i8, ptr %30, i64 80
  %32 = load ptr, ptr %31, align 8, !tbaa !41
  %33 = tail call ptr %32(ptr noundef nonnull %8, ptr noundef null) #4
  %34 = load ptr, ptr @PyDateTimeAPI, align 8, !tbaa !24
  %35 = getelementptr inbounds nuw i8, ptr %34, i64 80
  %36 = load ptr, ptr %35, align 8, !tbaa !41
  %37 = tail call ptr %36(ptr noundef nonnull %8, ptr noundef nonnull %9) #4
  %38 = load i32, ptr %8, align 8, !tbaa !3
  %.not.i = icmp sgt i32 %38, -1
  br i1 %.not.i, label %39, label %Py_DECREF.exit

39:                                               ; preds = %25
  %40 = add nsw i32 %38, -1
  store i32 %40, ptr %8, align 8, !tbaa !3
  %41 = icmp eq i32 %40, 0
  br i1 %41, label %42, label %Py_DECREF.exit

42:                                               ; preds = %39
  tail call void @_Py_Dealloc(ptr noundef nonnull %8) #4
  br label %Py_DECREF.exit

Py_DECREF.exit:                                   ; preds = %25, %39, %42
  %43 = load i32, ptr %9, align 8, !tbaa !3
  %.not.i36 = icmp sgt i32 %43, -1
  br i1 %.not.i36, label %44, label %Py_DECREF.exit37

44:                                               ; preds = %Py_DECREF.exit
  %45 = add nsw i32 %43, -1
  store i32 %45, ptr %9, align 8, !tbaa !3
  %46 = icmp eq i32 %45, 0
  br i1 %46, label %47, label %Py_DECREF.exit37

47:                                               ; preds = %44
  tail call void @_Py_Dealloc(ptr noundef nonnull %9) #4
  br label %Py_DECREF.exit37

Py_DECREF.exit37:                                 ; preds = %Py_DECREF.exit, %44, %47
  %48 = icmp eq ptr %29, null
  %49 = icmp eq ptr %33, null
  %or.cond3 = select i1 %48, i1 true, i1 %49
  %50 = icmp eq ptr %37, null
  %or.cond5 = select i1 %or.cond3, i1 true, i1 %50
  br i1 %or.cond5, label %73, label %51

51:                                               ; preds = %Py_DECREF.exit37
  %52 = tail call ptr @PyTuple_New(i64 noundef 3) #4
  %53 = icmp eq ptr %52, null
  br i1 %53, label %.thread, label %54

54:                                               ; preds = %51
  %55 = getelementptr i8, ptr %52, i64 8
  %.val7.i = load ptr, ptr %55, align 8, !tbaa !27
  %56 = getelementptr i8, ptr %.val7.i, i64 168
  %.val.i = load i64, ptr %56, align 8, !tbaa !42
  %57 = and i64 %.val.i, 67108864
  %.not.i43 = icmp eq i64 %57, 0
  br i1 %.not.i43, label %58, label %59

58:                                               ; preds = %54
  tail call void @__assert_fail(ptr noundef nonnull @.str.32, ptr noundef nonnull @.str.33, i32 noundef 32, ptr noundef nonnull @__PRETTY_FUNCTION__.PyTuple_SET_ITEM) #5
  unreachable

59:                                               ; preds = %54
  %.not.i.i44 = icmp eq ptr %.val7.i, @PyLong_Type
  br i1 %.not.i.i44, label %60, label %61

60:                                               ; preds = %59
  tail call void @__assert_fail(ptr noundef nonnull @.str.36, ptr noundef nonnull @.str.37, i32 noundef 282, ptr noundef nonnull @__PRETTY_FUNCTION__.Py_SIZE) #5
  unreachable

61:                                               ; preds = %59
  %.not3.i.i = icmp eq ptr %.val7.i, @PyBool_Type
  br i1 %.not3.i.i, label %62, label %Py_SIZE.exit.i

62:                                               ; preds = %61
  tail call void @__assert_fail(ptr noundef nonnull @.str.38, ptr noundef nonnull @.str.37, i32 noundef 283, ptr noundef nonnull @__PRETTY_FUNCTION__.Py_SIZE) #5
  unreachable

Py_SIZE.exit.i:                                   ; preds = %61
  %63 = getelementptr inbounds nuw i8, ptr %52, i64 16
  %64 = load i64, ptr %63, align 8, !tbaa !50
  %65 = icmp sgt i64 %64, 0
  br i1 %65, label %Py_SIZE.exit.i50, label %66

66:                                               ; preds = %Py_SIZE.exit.i
  tail call void @__assert_fail(ptr noundef nonnull @.str.35, ptr noundef nonnull @.str.33, i32 noundef 34, ptr noundef nonnull @__PRETTY_FUNCTION__.PyTuple_SET_ITEM) #5
  unreachable

Py_SIZE.exit.i50:                                 ; preds = %Py_SIZE.exit.i
  %67 = getelementptr inbounds nuw i8, ptr %52, i64 24
  store ptr %29, ptr %67, align 8, !tbaa !23
  %.not = icmp eq i64 %64, 1
  br i1 %.not, label %68, label %Py_SIZE.exit.i57

68:                                               ; preds = %Py_SIZE.exit.i50
  tail call void @__assert_fail(ptr noundef nonnull @.str.35, ptr noundef nonnull @.str.33, i32 noundef 34, ptr noundef nonnull @__PRETTY_FUNCTION__.PyTuple_SET_ITEM) #5
  unreachable

Py_SIZE.exit.i57:                                 ; preds = %Py_SIZE.exit.i50
  %69 = getelementptr i8, ptr %52, i64 32
  store ptr %33, ptr %69, align 8, !tbaa !23
  %70 = icmp samesign ugt i64 %64, 2
  br i1 %70, label %PyTuple_SET_ITEM.exit58, label %71

71:                                               ; preds = %Py_SIZE.exit.i57
  tail call void @__assert_fail(ptr noundef nonnull @.str.35, ptr noundef nonnull @.str.33, i32 noundef 34, ptr noundef nonnull @__PRETTY_FUNCTION__.PyTuple_SET_ITEM) #5
  unreachable

PyTuple_SET_ITEM.exit58:                          ; preds = %Py_SIZE.exit.i57
  %72 = getelementptr i8, ptr %52, i64 40
  store ptr %37, ptr %72, align 8, !tbaa !23
  br label %Py_XDECREF.exit42

73:                                               ; preds = %Py_DECREF.exit37
  br i1 %48, label %Py_XDECREF.exit61, label %.thread

.thread:                                          ; preds = %51, %73
  %74 = load i32, ptr %29, align 8, !tbaa !3
  %.not.i.i60 = icmp sgt i32 %74, -1
  br i1 %.not.i.i60, label %75, label %Py_XDECREF.exit61

75:                                               ; preds = %.thread
  %76 = add nsw i32 %74, -1
  store i32 %76, ptr %29, align 8, !tbaa !3
  %77 = icmp eq i32 %76, 0
  br i1 %77, label %78, label %Py_XDECREF.exit61

78:                                               ; preds = %75
  tail call void @_Py_Dealloc(ptr noundef nonnull %29) #4
  br label %Py_XDECREF.exit61

Py_XDECREF.exit61:                                ; preds = %73, %.thread, %75, %78
  br i1 %49, label %Py_XDECREF.exit64, label %79

79:                                               ; preds = %Py_XDECREF.exit61
  %80 = load i32, ptr %33, align 8, !tbaa !3
  %.not.i.i63 = icmp sgt i32 %80, -1
  br i1 %.not.i.i63, label %81, label %Py_XDECREF.exit64

81:                                               ; preds = %79
  %82 = add nsw i32 %80, -1
  store i32 %82, ptr %33, align 8, !tbaa !3
  %83 = icmp eq i32 %82, 0
  br i1 %83, label %84, label %Py_XDECREF.exit64

84:                                               ; preds = %81
  tail call void @_Py_Dealloc(ptr noundef nonnull %33) #4
  br label %Py_XDECREF.exit64

Py_XDECREF.exit64:                                ; preds = %Py_XDECREF.exit61, %79, %81, %84
  br i1 %50, label %Py_XDECREF.exit42, label %85

85:                                               ; preds = %Py_XDECREF.exit64
  %86 = load i32, ptr %37, align 8, !tbaa !3
  %.not.i.i66 = icmp sgt i32 %86, -1
  br i1 %.not.i.i66, label %87, label %Py_XDECREF.exit42

87:                                               ; preds = %85
  %88 = add nsw i32 %86, -1
  store i32 %88, ptr %37, align 8, !tbaa !3
  %89 = icmp eq i32 %88, 0
  br i1 %89, label %90, label %Py_XDECREF.exit42

90:                                               ; preds = %87
  tail call void @_Py_Dealloc(ptr noundef nonnull %37) #4
  br label %Py_XDECREF.exit42

Py_XDECREF.exit42:                                ; preds = %90, %87, %85, %Py_XDECREF.exit64, %24, %21, %19, %Py_XDECREF.exit, %PyTuple_SET_ITEM.exit58
  %.0 = phi ptr [ %52, %PyTuple_SET_ITEM.exit58 ], [ null, %Py_XDECREF.exit ], [ null, %19 ], [ null, %21 ], [ null, %24 ], [ null, %Py_XDECREF.exit64 ], [ null, %85 ], [ null, %87 ], [ null, %90 ]
  ret ptr %.0
}